target datalayout = "e-m:e-p270:32:32-p271:32:32-p272:64:64-i64:64-i128:128-f80:128-n8:16:32:64-S128"
target triple = "x86_64-pc-linux-gnu"

%struct.ISeqInStream = type { ptr }

; Function Attrs: nounwind uwtable
define i32 @SeqInStream_Read2(ptr noundef %0, ptr noundef %1, i64 noundef %2, i32 noundef %3) #0 {
  %5 = alloca i32, align 4
  %6 = alloca ptr, align 8
  %7 = alloca ptr, align 8
  %8 = alloca i64, align 8
  %9 = alloca i32, align 4
  %10 = alloca i64, align 8
  %11 = alloca i32, align 4
  %12 = alloca i32, align 4
  store ptr %0, ptr %6, align 8, !tbaa !3
  store ptr %1, ptr %7, align 8, !tbaa !3
  store i64 %2, ptr %8, align 8, !tbaa !7
  store i32 %3, ptr %9, align 4, !tbaa !9
  br label %13

13:                                               ; preds = %45, %4
  %14 = load i64, ptr %8, align 8, !tbaa !7
  %15 = icmp ne i64 %14, 0
  br i1 %15, label %16, label %46

16:                                               ; preds = %13
  call void @llvm.lifetime.start.p0(i64 8, ptr %10) #3
  %17 = load i64, ptr %8, align 8, !tbaa !7
  store i64 %17, ptr %10, align 8, !tbaa !7
  call void @llvm.lifetime.start.p0(i64 4, ptr %11) #3
  %18 = load ptr, ptr %6, align 8, !tbaa !3
  %19 = getelementptr inbounds nuw %struct.ISeqInStream, ptr %18, i32 0, i32 0
  %20 = load ptr, ptr %19, align 8, !tbaa !11
  %21 = load ptr, ptr %6, align 8, !tbaa !3
  %22 = load ptr, ptr %7, align 8, !tbaa !3
  %23 = call i32 %20(ptr noundef %21, ptr noundef %22, ptr noundef %10)
  store i32 %23, ptr %11, align 4, !tbaa !9
  %24 = load i32, ptr %11, align 4, !tbaa !9
  %25 = icmp ne i32 %24, 0
  br i1 %25, label %26, label %28

26:                                               ; preds = %16
  %27 = load i32, ptr %11, align 4, !tbaa !9
  store i32 %27, ptr %5, align 4
  store i32 1, ptr %12, align 4
  br label %29

28:                                               ; preds = %16
  store i32 0, ptr %12, align 4
  br label %29

29:                                               ; preds = %28, %26
  call void @llvm.lifetime.end.p0(i64 4, ptr %11) #3
  %30 = load i32, ptr %12, align 4
  switch i32 %30, label %43 [
    i32 0, label %31
  ]

31:                                               ; preds = %29
  %32 = load i64, ptr %10, align 8, !tbaa !7
  %33 = icmp eq i64 %32, 0
  br i1 %33, label %34, label %36

34:                                               ; preds = %31
  %35 = load i32, ptr %9, align 4, !tbaa !9
  store i32 %35, ptr %5, align 4
  store i32 1, ptr %12, align 4
  br label %43

36:                                               ; preds = %31
  %37 = load ptr, ptr %7, align 8, !tbaa !3
  %38 = load i64, ptr %10, align 8, !tbaa !7
  %39 = getelementptr inbounds nuw i8, ptr %37, i64 %38
  store ptr %39, ptr %7, align 8, !tbaa !3
  %40 = load i64, ptr %10, align 8, !tbaa !7
  %41 = load i64, ptr %8, align 8, !tbaa !7
  %42 = sub i64 %41, %40
  store i64 %42, ptr %8, align 8, !tbaa !7
  store i32 0, ptr %12, align 4
  br label %43

43:                                               ; preds = %36, %34, %29
  call void @llvm.lifetime.end.p0(i64 8, ptr %10) #3
  %44 = load i32, ptr %12, align 4
  switch i32 %44, label %49 [
    i32 0, label %45
    i32 1, label %47
  ]

45:                                               ; preds = %43
  br label %13

46:                                               ; preds = %13
  store i32 0, ptr %5, align 4
  br label %47

47:                                               ; preds = %46, %43
  %48 = load i32, ptr %5, align 4
  ret i32 %48

49:                                               ; preds = %43
  unreachable
}

; Function Attrs: nounwind uwtable
define i32 @SeqInStream_Read(ptr noundef %0, ptr noundef %1, i64 noundef %2) #0 {
  %4 = alloca ptr, align 8
  %5 = alloca ptr, align 8
  %6 = alloca i64, align 8
  store ptr %0, ptr %4, align 8, !tbaa !3
  store ptr %1, ptr %5, align 8, !tbaa !3
  store i64 %2, ptr %6, align 8, !tbaa !7
  %7 = load ptr, ptr %4, align 8, !tbaa !3
  %8 = load ptr, ptr %5, align 8, !tbaa !3
  %9 = load i64, ptr %6, align 8, !tbaa !7
  %10 = call i32 @SeqInStream_Read2(ptr noundef %7, ptr noundef %8, i64 noundef %9, i32 noundef 6)
  ret i32 %10
}