; Function Attrs: nounwind uwtable
define i32 @SeqInStream_Read(ptr noundef %0, ptr noundef %1, i64 noundef %2) local_unnamed_addr #0 {
  %4 = alloca i64, align 8
  %.not26.i = icmp eq i64 %2, 0
  br i1 %.not26.i, label %SeqInStream_Read2.exit, label %.lr.ph.i

.lr.ph.i:                                         ; preds = %3, %10
  %.01428.i = phi ptr [ %11, %10 ], [ %1, %3 ]
  %.01627.i = phi i64 [ %12, %10 ], [ %2, %3 ]
  call void @llvm.lifetime.start.p0(i64 8, ptr nonnull %4) #7
  store i64 %.01627.i, ptr %4, align 8, !tbaa !3
  %5 = load ptr, ptr %0, align 8, !tbaa !7
  %6 = call i32 %5(ptr noundef nonnull %0, ptr noundef %.01428.i, ptr noundef nonnull %4) #7
  %.not20.i = icmp eq i32 %6, 0
  br i1 %.not20.i, label %7, label %.thread.i

7:                                                ; preds = %.lr.ph.i
  %8 = load i64, ptr %4, align 8, !tbaa !3
  %9 = icmp eq i64 %8, 0
  br i1 %9, label %.thread.i, label %10

.thread.i:                                        ; preds = %7, %.lr.ph.i
  %.2.ph.i = phi i32 [ 6, %7 ], [ %6, %.lr.ph.i ]
  call void @llvm.lifetime.end.p0(i64 8, ptr nonnull %4) #7
  br label %SeqInStream_Read2.exit

10:                                               ; preds = %7
  %11 = getelementptr inbounds nuw i8, ptr %.01428.i, i64 %8
  %12 = sub i64 %.01627.i, %8
  call void @llvm.lifetime.end.p0(i64 8, ptr nonnull %4) #7
  %.not.i = icmp eq i64 %12, 0
  br i1 %.not.i, label %SeqInStream_Read2.exit, label %.lr.ph.i

SeqInStream_Read2.exit:                           ; preds = %10, %3, %.thread.i
  %.3.i = phi i32 [ %.2.ph.i, %.thread.i ], [ 0, %3 ], [ 0, %10 ]
  ret i32 %.3.i
}